(i__main__
Det_limits
p0
(dp1
S'chi2_high'
p2
F0.0
sS'linewidth_high'
p3
F0.0
sS'linewidth_low'
p4
F0.0
sS'field'
p5
(S'cosmos'
p6
tp7
sS'sn_low'
p8
F0.0
sS'cont_low'
p9
F0.0
sS'sn_high'
p10
F0.0
sS'cont_high'
p11
F0.0
sS'wave_high'
p12
F0.0
sS'aperture_flag'
p13
I00
sS'ra'
p14
F0.0
sS'chi2_low'
p15
F0.0
sS'wave_low'
p16
F0.0
sS'dec'
p17
F0.0
sS'flux_high'
p18
F0.0
sS'flux_low'
p19
F0.0
sS'rad'
p20
F0.0
sb.