(i__main__
Det_limits
p0
(dp1
S'chi2_high'
p2
F0.0
sS'linewidth_high'
p3
F0.0
sS'linewidth_low'
p4
F0.0
sS'field'
p5
(S'dex-spring'
p6
S'dex-fall'
p7
tp8
sS'sn_low'
p9
F0.0
sS'cont_low'
p10
F0.0
sS'sn_high'
p11
F0.0
sS'cont_high'
p12
F0.0
sS'wave_high'
p13
F0.0
sS'aperture_flag'
p14
I00
sS'ra'
p15
F0.0
sS'chi2_low'
p16
F0.0
sS'wave_low'
p17
F0.0
sS'dec'
p18
F0.0
sS'flux_high'
p19
F0.0
sS'flux_low'
p20
F0.0
sS'rad'
p21
F0.0
sb.